target datalayout = "e-m:e-p270:32:32-p271:32:32-p272:64:64-i64:64-i128:128-f80:128-n8:16:32:64-S128"
target triple = "x86_64-pc-linux-gnu"

%struct.OSQPVectorf_ = type { ptr, i64 }

; Function Attrs: nounwind uwtable
define void @OSQPVectorf_set_scalar_if_lt(ptr noundef %0, ptr noundef %1, double noundef %2, double noundef %3) #0 {
  %5 = alloca ptr, align 8
  %6 = alloca ptr, align 8
  %7 = alloca double, align 8
  %8 = alloca double, align 8
  %9 = alloca i64, align 8
  %10 = alloca i64, align 8
  %11 = alloca ptr, align 8
  %12 = alloca ptr, align 8
  store ptr %0, ptr %5, align 8
  store ptr %1, ptr %6, align 8
  store double %2, ptr %7, align 8
  store double %3, ptr %8, align 8
  %13 = load ptr, ptr %5, align 8
  %14 = getelementptr inbounds %struct.OSQPVectorf_, ptr %13, i32 0, i32 1
  %15 = load i64, ptr %14, align 8
  store i64 %15, ptr %10, align 8
  %16 = load ptr, ptr %5, align 8
  %17 = getelementptr inbounds %struct.OSQPVectorf_, ptr %16, i32 0, i32 0
  %18 = load ptr, ptr %17, align 8
  store ptr %18, ptr %11, align 8
  %19 = load ptr, ptr %6, align 8
  %20 = getelementptr inbounds %struct.OSQPVectorf_, ptr %19, i32 0, i32 0
  %21 = load ptr, ptr %20, align 8
  store ptr %21, ptr %12, align 8
  store i64 0, ptr %9, align 8
  br label %22

22:                                               ; preds = %45, %4
  %23 = load i64, ptr %9, align 8
  %24 = load i64, ptr %10, align 8
  %25 = icmp slt i64 %23, %24
  br i1 %25, label %26, label %48

26:                                               ; preds = %22
  %27 = load ptr, ptr %12, align 8
  %28 = load i64, ptr %9, align 8
  %29 = getelementptr inbounds double, ptr %27, i64 %28
  %30 = load double, ptr %29, align 8
  %31 = load double, ptr %7, align 8
  %32 = fcmp olt double %30, %31
  br i1 %32, label %33, label %35

33:                                               ; preds = %26
  %34 = load double, ptr %8, align 8
  br label %40

35:                                               ; preds = %26
  %36 = load ptr, ptr %12, align 8
  %37 = load i64, ptr %9, align 8
  %38 = getelementptr inbounds double, ptr %36, i64 %37
  %39 = load double, ptr %38, align 8
  br label %40

40:                                               ; preds = %35, %33
  %41 = phi double [ %34, %33 ], [ %39, %35 ]
  %42 = load ptr, ptr %11, align 8
  %43 = load i64, ptr %9, align 8
  %44 = getelementptr inbounds double, ptr %42, i64 %43
  store double %41, ptr %44, align 8
  br label %45

45:                                               ; preds = %40
  %46 = load i64, ptr %9, align 8
  %47 = add nsw i64 %46, 1
  store i64 %47, ptr %9, align 8
  br label %22, !llvm.loop !46

48:                                               ; preds = %22
  ret void
}